target datalayout = "e-m:e-p270:32:32-p271:32:32-p272:64:64-i64:64-i128:128-f80:128-n8:16:32:64-S128"
target triple = "x86_64-pc-linux-gnu"

%class.QChar = type { i16 }

; Function Attrs: mustprogress uwtable
define void @_ZN11U3DIOPlugin14substituteCharER7QStringRK5QCharRKS0_(ptr noundef nonnull align 8 dereferenceable(32) %0, ptr noundef nonnull align 8 dereferenceable(8) %1, ptr noundef nonnull align 2 dereferenceable(2) %2, ptr noundef nonnull align 8 dereferenceable(8) %3) #5 align 2 {
  %5 = alloca ptr, align 8
  %6 = alloca ptr, align 8
  %7 = alloca ptr, align 8
  %8 = alloca ptr, align 8
  %9 = alloca i32, align 4
  %10 = alloca %class.QChar, align 2
  store ptr %0, ptr %5, align 8
  store ptr %1, ptr %6, align 8
  store ptr %2, ptr %7, align 8
  store ptr %3, ptr %8, align 8
  store i32 0, ptr %9, align 4
  br label %11

11:                                               ; preds = %19, %4
  %12 = load ptr, ptr %6, align 8
  %13 = load ptr, ptr %7, align 8
  call void @llvm.memcpy.p0.p0.i64(ptr align 2 %10, ptr align 2 %13, i64 2, i1 false)
  %14 = load i32, ptr %9, align 4
  %15 = getelementptr inbounds %class.QChar, ptr %10, i32 0, i32 0
  %16 = load i16, ptr %15, align 2
  %17 = call noundef i32 @_ZNK7QString7indexOfE5QChariN2Qt15CaseSensitivityE(ptr noundef nonnull align 8 dereferenceable(8) %12, i16 %16, i32 noundef %14, i32 noundef 1)
  store i32 %17, ptr %9, align 4
  %18 = icmp ne i32 %17, -1
  br i1 %18, label %19, label %26

19:                                               ; preds = %11
  %20 = load ptr, ptr %6, align 8
  %21 = load i32, ptr %9, align 4
  %22 = load ptr, ptr %8, align 8
  %23 = call noundef nonnull align 8 dereferenceable(8) ptr @_ZN7QString7replaceEiiRKS_(ptr noundef nonnull align 8 dereferenceable(8) %20, i32 noundef %21, i32 noundef 1, ptr noundef nonnull align 8 dereferenceable(8) %22)
  %24 = load ptr, ptr %6, align 8
  %25 = call noundef nonnull align 8 dereferenceable(8) ptr @_ZN7QStringaSERKS_(ptr noundef nonnull align 8 dereferenceable(8) %24, ptr noundef nonnull align 8 dereferenceable(8) %23) #3
  br label %11, !llvm.loop !93

26:                                               ; preds = %11
  ret void
}