; Function Attrs: mustprogress uwtable
define void @_ZN11U3DIOPlugin14substituteCharER7QStringRK5QCharRKS0_(ptr nocapture noundef nonnull readnone align 8 dereferenceable(32) %0, ptr noundef nonnull align 8 dereferenceable(8) %1, ptr nocapture noundef nonnull readonly align 2 dereferenceable(2) %2, ptr noundef nonnull align 8 dereferenceable(8) %3) local_unnamed_addr #9 align 2 {
  %.sroa.0.0.copyload7 = load i16, ptr %2, align 2
  %5 = tail call noundef i32 @_ZNK7QString7indexOfE5QChariN2Qt15CaseSensitivityE(ptr noundef nonnull align 8 dereferenceable(8) %1, i16 %.sroa.0.0.copyload7, i32 noundef 0, i32 noundef 1)
  %.not8 = icmp eq i32 %5, -1
  br i1 %.not8, label %._crit_edge, label %.lr.ph

.lr.ph:                                           ; preds = %4, %.lr.ph
  %6 = phi i32 [ %9, %.lr.ph ], [ %5, %4 ]
  %7 = tail call noundef nonnull align 8 dereferenceable(8) ptr @_ZN7QString7replaceEiiRKS_(ptr noundef nonnull align 8 dereferenceable(8) %1, i32 noundef %6, i32 noundef 1, ptr noundef nonnull align 8 dereferenceable(8) %3)
  %8 = tail call noundef nonnull align 8 dereferenceable(8) ptr @_ZN7QStringaSERKS_(ptr noundef nonnull align 8 dereferenceable(8) %1, ptr noundef nonnull align 8 dereferenceable(8) %7) #23
  %.sroa.0.0.copyload = load i16, ptr %2, align 2
  %9 = tail call noundef i32 @_ZNK7QString7indexOfE5QChariN2Qt15CaseSensitivityE(ptr noundef nonnull align 8 dereferenceable(8) %1, i16 %.sroa.0.0.copyload, i32 noundef %6, i32 noundef 1)
  %.not = icmp eq i32 %9, -1
  br i1 %.not, label %._crit_edge, label %.lr.ph, !llvm.loop !259

._crit_edge:                                      ; preds = %.lr.ph, %4
  ret void
}